Certificate:
    Data:
        Version: 3 (0x2)
        Serial Number: 2 (0x2)
        Signature Algorithm: ecdsa-with-SHA512
        Issuer: C=XX, O=XXXXXXXX, OU=XXXXXXXX Network CA, CN=XXXXXXXX CA
        Validity
            Not Before: Jun 15 09:36:49 2021 GMT
            Not After : Jun 15 09:36:49 2031 GMT
        Subject: C=XX, O=XXXXXXXX, OU=XXXXXXXX TLS CA, CN=XXXXXXXX TLS CA
        Subject Public Key Info:
            Public Key Algorithm: id-ecPublicKey
                Public-Key: (521 bit)
                pub:
                    04:00:bd:10:2b:5a:72:3f:87:dc:5f:50:69:d8:5b:
                    0d:84:28:08:e5:60:ce:20:44:c0:4b:f5:49:b3:3a:
                    8d:b9:e3:f0:74:20:8e:e7:fc:a5:92:ad:34:a2:45:
                    41:19:c8:e5:8b:db:10:cc:44:26:45:d3:71:08:df:
                    fc:1e:62:bc:25:a7:1b:01:f4:3a:1f:dc:0d:1f:0f:
                    90:18:c1:68:8f:9f:9e:0b:27:fc:ac:19:c8:50:a0:
                    c6:ab:73:ee:ec:a4:94:cb:fa:98:a5:60:20:c0:35:
                    95:ef:eb:f9:65:c3:0e:19:40:03:10:01:25:a0:c3:
                    cb:60:03:0f:73:8a:22:a2:b5:48:e6:6a:ef
                ASN1 OID: secp521r1
                NIST CURVE: P-521
        X509v3 extensions:
            X509v3 Key Usage: critical
                Certificate Sign, CRL Sign
            X509v3 Basic Constraints: critical
                CA:TRUE, pathlen:0
            X509v3 Subject Key Identifier: 
                54:95:2A:2B:F3:7A:3B:BC:16:BA:8B:32:BF:55:C8:2B:EC:3A:03:19
            X509v3 Authority Key Identifier: 
                keyid:B7:61:21:71:4A:55:61:46:71:18:65:B8:2E:E2:87:62:E7:30:65:C2

            Authority Information Access: 
                CA Issuers - URI:https://kryptotel.ae/network-ca.cer

            X509v3 CRL Distribution Points: 

                Full Name:
                  URI:https://kryptotel.ae/network-ca.crl

            X509v3 Certificate Policies: 
                Policy: Blue Medium Assurance
                Policy: Blue Medium Device Assurance

    Signature Algorithm: ecdsa-with-SHA512
         30:81:87:02:42:01:a4:ed:ef:1d:60:e1:d0:32:4a:cb:a7:d0:
         77:1e:92:1a:85:ed:11:f9:53:4d:6b:b8:a7:00:5a:b4:23:0a:
         95:90:ce:05:37:01:17:eb:f1:68:b9:ac:c8:e4:b4:ed:e0:33:
         8c:b9:04:55:77:53:0f:12:c4:b1:49:1a:d9:94:8a:0e:7c:02:
         41:1f:51:05:84:9b:44:58:12:10:99:04:bc:33:5c:77:31:cd:
         70:82:bb:b1:b8:76:f1:4d:b8:e7:11:83:c7:e6:30:32:0f:00:
         9a:29:90:19:cb:a8:0f:d5:96:65:df:a4:1d:73:36:68:25:6c:
         c0:34:d7:11:37:f3:4c:5a:9d:5a:16:6c
-----BEGIN CERTIFICATE-----
MIIDJDCCAoagAwIBAgIBAjAKBggqhkjOPQQDBDBUMQswCQYDVQQGEwJYWDERMA8G
A1UECgwIWFhYWFhYWFgxHDAaBgNVBAsME1hYWFhYWFhYIE5ldHdvcmsgQ0ExFDAS
BgNVBAMMC1hYWFhYWFhYIENBMB4XDTIxMDYxNTA5MzY0OVoXDTMxMDYxNTA5MzY0
OVowVDELMAkGA1UEBhMCWFgxETAPBgNVBAoMCFhYWFhYWFhYMRgwFgYDVQQLDA9Y
WFhYWFhYWCBUTFMgQ0ExGDAWBgNVBAMMD1hYWFhYWFhYIFRMUyBDQTCBmzAQBgcq
hkjOPQIBBgUrgQQAIwOBhgAEAL0QK1pyP4fcX1Bp2FsNhCgI5WDOIETAS/VJszqN
uePwdCCO5/ylkq00okVBGcjli9sQzEQmRdNxCN/8HmK8JacbAfQ6H9wNHw+QGMFo
j5+eCyf8rBnIUKDGq3Pu7KSUy/qYpWAgwDWV7+v5ZcMOGUADEAEloMPLYAMPc4oi
orVI5mrvo4IBBDCCAQAwDgYDVR0PAQH/BAQDAgEGMBIGA1UdEwEB/wQIMAYBAf8C
AQAwHQYDVR0OBBYEFFSVKivzeju8FrqLMr9VyCvsOgMZMB8GA1UdIwQYMBaAFLdh
IXFKVWFGcRhluC7ih2LnMGXCMD8GCCsGAQUFBwEBBDMwMTAvBggrBgEFBQcwAoYj
aHR0cHM6Ly9rcnlwdG90ZWwuYWUvbmV0d29yay1jYS5jZXIwNAYDVR0fBC0wKzAp
oCegJYYjaHR0cHM6Ly9rcnlwdG90ZWwuYWUvbmV0d29yay1jYS5jcmwwIwYDVR0g
BBwwGjALBgkrBgEEAQABBwgwCwYJKwYBBAEAAQcJMAoGCCqGSM49BAMEA4GLADCB
hwJCAaTt7x1g4dAySsun0HcekhqF7RH5U01ruKcAWrQjCpWQzgU3ARfr8Wi5rMjk
tO3gM4y5BFV3Uw8SxLFJGtmUig58AkEfUQWEm0RYEhCZBLwzXHcxzXCCu7G4dvFN
uOcRg8fmMDIPAJopkBnLqA/VlmXfpB1zNmglbMA01xE380xanVoWbA==
-----END CERTIFICATE-----
Certificate:
    Data:
        Version: 3 (0x2)
        Serial Number: 2 (0x2)
        Signature Algorithm: ecdsa-with-SHA512
        Issuer: C=XX, O=XXXXXXXX, OU=XXXXXXXX, CN=XXXXXXXX Root CA
        Validity
            Not Before: Jun 15 09:34:57 2021 GMT
            Not After : Dec 31 23:59:59 2030 GMT
        Subject: C=XX, O=XXXXXXXX, OU=XXXXXXXX Network CA, CN=XXXXXXXX CA
        Subject Public Key Info:
            Public Key Algorithm: id-ecPublicKey
                Public-Key: (521 bit)
                pub:
                    04:00:29:d1:83:60:19:bb:47:88:39:20:32:cd:71:
                    ae:0b:19:32:93:d0:44:e1:e3:66:2f:15:30:c8:7c:
                    b4:39:91:46:89:95:f8:b7:60:6c:48:af:0b:25:49:
                    06:fc:d7:65:68:67:3f:48:c0:10:7e:24:0e:c1:a6:
                    89:d3:61:16:a6:17:22:01:6d:dc:42:48:00:af:fd:
                    5b:be:01:54:dc:a6:78:8a:34:c7:6d:05:89:33:fd:
                    a2:5d:33:24:c2:67:0f:af:1a:57:54:33:1e:f5:96:
                    76:e3:b7:bd:69:a5:6c:c4:70:15:18:dc:30:19:08:
                    eb:19:bf:0b:3a:27:dd:ea:c0:7a:fb:b9:10
                ASN1 OID: secp521r1
                NIST CURVE: P-521
        X509v3 extensions:
            X509v3 Key Usage: critical
                Certificate Sign, CRL Sign
            X509v3 Basic Constraints: critical
                CA:TRUE
            X509v3 Subject Key Identifier: 
                B7:61:21:71:4A:55:61:46:71:18:65:B8:2E:E2:87:62:E7:30:65:C2
            X509v3 Authority Key Identifier: 
                keyid:85:87:1C:99:8E:20:E0:74:74:D2:6A:30:B1:F1:FD:DB:47:16:59:A5

            Authority Information Access: 
                CA Issuers - URI:https://kryptotel.ae/root-ca.cer

            X509v3 CRL Distribution Points: 

                Full Name:
                  URI:https://kryptotel.ae/root-ca.crl

            X509v3 Certificate Policies: 
                Policy: Blue Medium Assurance
                Policy: Blue Medium Device Assurance

    Signature Algorithm: ecdsa-with-SHA512
         30:81:87:02:42:01:7f:ca:3f:a3:15:65:b5:02:27:76:fc:94:
         43:d1:20:74:27:28:b1:9b:05:b2:46:91:21:22:96:6e:cc:d9:
         4f:50:2a:d9:09:1f:20:71:1d:ce:58:68:ef:6b:74:ed:b9:b4:
         f0:81:46:15:72:d9:86:f0:e6:bf:61:57:f3:c5:da:0c:05:02:
         41:4b:c4:eb:ea:df:ec:9e:81:18:c0:f1:0c:c8:a3:25:ae:b8:
         b7:1b:43:dc:3b:a3:3f:07:21:fd:b8:50:64:f7:72:b0:20:19:
         e3:a2:e8:f6:36:1c:d3:dc:76:db:65:7e:bc:b7:97:bb:8b:00:
         d4:22:2f:f3:25:3d:07:0c:55:c4:54:01
-----BEGIN CERTIFICATE-----
MIIDEzCCAnWgAwIBAgIBAjAKBggqhkjOPQQDBDBOMQswCQYDVQQGEwJYWDERMA8G
A1UECgwIWFhYWFhYWFgxETAPBgNVBAsMCFhYWFhYWFhYMRkwFwYDVQQDDBBYWFhY
WFhYWCBSb290IENBMB4XDTIxMDYxNTA5MzQ1N1oXDTMwMTIzMTIzNTk1OVowVDEL
MAkGA1UEBhMCWFgxETAPBgNVBAoMCFhYWFhYWFhYMRwwGgYDVQQLDBNYWFhYWFhY
WCBOZXR3b3JrIENBMRQwEgYDVQQDDAtYWFhYWFhYWCBDQTCBmzAQBgcqhkjOPQIB
BgUrgQQAIwOBhgAEACnRg2AZu0eIOSAyzXGuCxkyk9BE4eNmLxUwyHy0OZFGiZX4
t2BsSK8LJUkG/NdlaGc/SMAQfiQOwaaJ02EWphciAW3cQkgAr/1bvgFU3KZ4ijTH
bQWJM/2iXTMkwmcPrxpXVDMe9ZZ247e9aaVsxHAVGNwwGQjrGb8LOifd6sB6+7kQ
o4H6MIH3MA4GA1UdDwEB/wQEAwIBBjAPBgNVHRMBAf8EBTADAQH/MB0GA1UdDgQW
BBS3YSFxSlVhRnEYZbgu4odi5zBlwjAfBgNVHSMEGDAWgBSFhxyZjiDgdHTSajCx
8f3bRxZZpTA8BggrBgEFBQcBAQQwMC4wLAYIKwYBBQUHMAKGIGh0dHBzOi8va3J5
cHRvdGVsLmFlL3Jvb3QtY2EuY2VyMDEGA1UdHwQqMCgwJqAkoCKGIGh0dHBzOi8v
a3J5cHRvdGVsLmFlL3Jvb3QtY2EuY3JsMCMGA1UdIAQcMBowCwYJKwYBBAEAAQcI
MAsGCSsGAQQBAAEHCTAKBggqhkjOPQQDBAOBiwAwgYcCQgF/yj+jFWW1Aid2/JRD
0SB0JyixmwWyRpEhIpZuzNlPUCrZCR8gcR3OWGjva3TtubTwgUYVctmG8Oa/YVfz
xdoMBQJBS8Tr6t/snoEYwPEMyKMlrri3G0PcO6M/ByH9uFBk93KwIBnjouj2NhzT
3HbbZX68t5e7iwDUIi/zJT0HDFXEVAE=
-----END CERTIFICATE-----
Certificate:
    Data:
        Version: 3 (0x2)
        Serial Number: 1 (0x1)
        Signature Algorithm: ecdsa-with-SHA512
        Issuer: C=XX, O=XXXXXXXX, OU=XXXXXXXX, CN=XXXXXXXX Root CA
        Validity
            Not Before: Jun 15 09:34:21 2021 GMT
            Not After : Dec 31 23:59:59 2030 GMT
        Subject: C=XX, O=XXXXXXXX, OU=XXXXXXXX, CN=XXXXXXXX Root CA
        Subject Public Key Info:
            Public Key Algorithm: id-ecPublicKey
                Public-Key: (521 bit)
                pub:
                    04:01:06:21:93:3a:db:1f:b0:ca:1f:41:5c:34:66:
                    21:f0:04:cd:08:19:15:ed:44:42:6b:b9:1f:61:7f:
                    b6:fe:1f:9d:a2:32:12:31:be:c7:6e:bb:a7:f8:e9:
                    68:56:f0:01:c2:44:d8:ec:dc:06:ca:69:7a:af:1e:
                    50:59:d5:46:7a:bc:2f:00:c9:5c:89:8a:f0:28:37:
                    54:65:cb:bc:3e:93:f4:a6:4b:80:0c:12:25:9b:a2:
                    65:38:df:86:74:32:3e:fb:bb:8a:79:5e:8a:45:0c:
                    5b:01:af:be:72:19:50:24:c0:e7:98:60:6a:ca:3c:
                    66:1f:d3:f6:68:53:a5:c6:ba:48:cf:06:72
                ASN1 OID: secp521r1
                NIST CURVE: P-521
        X509v3 extensions:
            X509v3 Key Usage: critical
                Certificate Sign, CRL Sign
            X509v3 Basic Constraints: critical
                CA:TRUE
            X509v3 Subject Key Identifier: 
                85:87:1C:99:8E:20:E0:74:74:D2:6A:30:B1:F1:FD:DB:47:16:59:A5
            X509v3 Authority Key Identifier: 
                keyid:85:87:1C:99:8E:20:E0:74:74:D2:6A:30:B1:F1:FD:DB:47:16:59:A5

    Signature Algorithm: ecdsa-with-SHA512
         30:81:87:02:42:00:ad:67:05:2a:bd:1f:28:72:bd:e5:1a:e3:
         d4:a4:ed:8e:b7:c5:02:e7:06:27:78:66:eb:a8:65:74:ec:e7:
         fa:6a:4a:e6:64:9e:f6:a4:88:d2:7d:88:b6:09:5d:ca:04:a1:
         af:e1:f2:70:80:99:c4:31:e8:6b:bd:91:95:8a:2b:70:15:02:
         41:11:18:a6:9c:79:4a:f5:6f:73:d8:44:ae:bd:3d:86:35:7f:
         d6:92:4b:09:c1:f9:77:d6:ee:85:4e:3f:7a:d7:aa:c0:35:31:
         8c:b7:88:5d:1a:4a:6d:15:1c:6c:9e:1e:81:a6:b7:3f:e3:77:
         65:28:8c:8e:eb:6a:31:28:f9:ef:b0:22
-----BEGIN CERTIFICATE-----
MIICdTCCAdegAwIBAgIBATAKBggqhkjOPQQDBDBOMQswCQYDVQQGEwJYWDERMA8G
A1UECgwIWFhYWFhYWFgxETAPBgNVBAsMCFhYWFhYWFhYMRkwFwYDVQQDDBBYWFhY
WFhYWCBSb290IENBMB4XDTIxMDYxNTA5MzQyMVoXDTMwMTIzMTIzNTk1OVowTjEL
MAkGA1UEBhMCWFgxETAPBgNVBAoMCFhYWFhYWFhYMREwDwYDVQQLDAhYWFhYWFhY
WDEZMBcGA1UEAwwQWFhYWFhYWFggUm9vdCBDQTCBmzAQBgcqhkjOPQIBBgUrgQQA
IwOBhgAEAQYhkzrbH7DKH0FcNGYh8ATNCBkV7URCa7kfYX+2/h+dojISMb7Hbrun
+OloVvABwkTY7NwGyml6rx5QWdVGerwvAMlciYrwKDdUZcu8PpP0pkuADBIlm6Jl
ON+GdDI++7uKeV6KRQxbAa++chlQJMDnmGBqyjxmH9P2aFOlxrpIzwZyo2MwYTAO
BgNVHQ8BAf8EBAMCAQYwDwYDVR0TAQH/BAUwAwEB/zAdBgNVHQ4EFgQUhYccmY4g
4HR00mowsfH920cWWaUwHwYDVR0jBBgwFoAUhYccmY4g4HR00mowsfH920cWWaUw
CgYIKoZIzj0EAwQDgYsAMIGHAkIArWcFKr0fKHK95Rrj1KTtjrfFAucGJ3hm66hl
dOzn+mpK5mSe9qSI0n2ItgldygShr+HycICZxDHoa72RlYorcBUCQREYppx5SvVv
c9hErr09hjV/1pJLCcH5d9buhU4/eteqwDUxjLeIXRpKbRUcbJ4egaa3P+N3ZSiM
jutqMSj577Ai
-----END CERTIFICATE-----